; Function Attrs: mustprogress nofree norecurse nosync nounwind willreturn memory(readwrite, inaccessiblemem: none) uwtable
define internal noundef nonnull ptr @get_args(ptr readnone captures(none) %0, ptr noundef %1) #2 {
  %3 = icmp eq ptr %1, null
  %spec.store.select = select i1 %3, ptr @_Py_NoneStruct, ptr %1
  %4 = load i32, ptr %spec.store.select, align 8, !tbaa !3
  %5 = icmp slt i32 %4, 0
  br i1 %5, label %_Py_NewRef.exit, label %6

6:                                                ; preds = %2
  %7 = add nuw i32 %4, 1
  store i32 %7, ptr %spec.store.select, align 8, !tbaa !3
  br label %_Py_NewRef.exit

_Py_NewRef.exit:                                  ; preds = %2, %6
  ret ptr %spec.store.select
}